target datalayout = "e-m:e-p270:32:32-p271:32:32-p272:64:64-i64:64-i128:128-f80:128-n8:16:32:64-S128"
target triple = "x86_64-pc-linux-gnu"

%struct.RelationData = type { %struct.RelFileLocator, ptr, i32, i32, i8, i8, i8, i8, i8, i32, i32, i32, i32, ptr, ptr, i32, %struct.LockInfoData, ptr, ptr, ptr, ptr, ptr, i8, ptr, ptr, ptr, ptr, ptr, ptr, i32, ptr, i8, ptr, ptr, i32, i8, i32, ptr, i8, ptr, ptr, ptr, ptr, ptr, ptr, ptr, i32, ptr, ptr, ptr, ptr, ptr, ptr, ptr, ptr, ptr, ptr, ptr, ptr, ptr, ptr, ptr, ptr, ptr, ptr, ptr, i32, i8, ptr }
%struct.RelFileLocator = type { i32, i32, i32 }
%struct.LockInfoData = type { %struct.LockRelId }
%struct.LockRelId = type { i32, i32 }
%struct.FormData_pg_class = type { i32, %struct.nameData, i32, i32, i32, i32, i32, i32, i32, i32, float, i32, i32, i8, i8, i8, i8, i16, i16, i8, i8, i8, i8, i8, i8, i8, i8, i32, i32, i32 }
%struct.nameData = type { [64 x i8] }
%struct.IndexAmRoutine = type { i32, i16, i16, i16, i8, i8, i8, i8, i8, i8, i8, i8, i8, i8, i8, i8, i8, i8, i8, i8, i8, i32, ptr, ptr, ptr, ptr, ptr, ptr, ptr, ptr, ptr, ptr, ptr, ptr, ptr, ptr, ptr, ptr, ptr, ptr, ptr, ptr, ptr, ptr, ptr, ptr, ptr, ptr }
%struct.IndexVacuumInfo = type { ptr, ptr, i8, i8, i8, i32, double, ptr }

@.str = private unnamed_addr constant [53 x i8] c"cannot access index \22%s\22 while it is being reindexed\00", align 1
@.str.1 = private unnamed_addr constant [10 x i8] c"indexam.c\00", align 1
@.str.2 = private unnamed_addr constant [44 x i8] c"function \22%s\22 is not defined for index \22%s\22\00", align 1
@__func__.index_bulk_delete = private unnamed_addr constant [18 x i8] c"index_bulk_delete\00", align 1
@.str.10 = private unnamed_addr constant [13 x i8] c"ambulkdelete\00", align 1

; Function Attrs: nounwind uwtable
define dso_local ptr @index_bulk_delete(ptr noundef %0, ptr noundef %1, ptr noundef %2, ptr noundef %3) #0 {
  %5 = alloca ptr, align 8
  %6 = alloca ptr, align 8
  %7 = alloca ptr, align 8
  %8 = alloca ptr, align 8
  %9 = alloca ptr, align 8
  store ptr %0, ptr %5, align 8
  store ptr %1, ptr %6, align 8
  store ptr %2, ptr %7, align 8
  store ptr %3, ptr %8, align 8
  call void @llvm.lifetime.start.p0(i64 8, ptr %9) #7
  %10 = load ptr, ptr %5, align 8
  %11 = getelementptr inbounds nuw %struct.IndexVacuumInfo, ptr %10, i32 0, i32 0
  %12 = load ptr, ptr %11, align 8
  store ptr %12, ptr %9, align 8
  br label %13

13:                                               ; preds = %4
  %14 = load ptr, ptr %9, align 8
  %15 = getelementptr inbounds nuw %struct.RelationData, ptr %14, i32 0, i32 15
  %16 = load i32, ptr %15, align 8
  %17 = call zeroext i1 @ReindexIsProcessingIndex(i32 noundef %16)
  %18 = zext i1 %17 to i32
  %19 = icmp ne i32 %18, 0
  %20 = zext i1 %19 to i32
  %21 = sext i32 %20 to i64
  %22 = call i64 @llvm.expect.i64(i64 %21, i64 0)
  %23 = icmp ne i64 %22, 0
  br i1 %23, label %24, label %42

24:                                               ; preds = %13
  br label %25

25:                                               ; preds = %24
  br i1 true, label %26, label %28

26:                                               ; preds = %25
  %27 = call zeroext i1 @errstart_cold(i32 noundef 21, ptr noundef null) #8
  br i1 %27, label %30, label %39

28:                                               ; preds = %25
  %29 = call zeroext i1 @errstart(i32 noundef 21, ptr noundef null)
  br i1 %29, label %30, label %39

30:                                               ; preds = %28, %26
  %31 = call i32 @errcode(i32 noundef 1088)
  %32 = load ptr, ptr %9, align 8
  %33 = getelementptr inbounds nuw %struct.RelationData, ptr %32, i32 0, i32 13
  %34 = load ptr, ptr %33, align 8
  %35 = getelementptr inbounds nuw %struct.FormData_pg_class, ptr %34, i32 0, i32 1
  %36 = getelementptr inbounds nuw %struct.nameData, ptr %35, i32 0, i32 0
  %37 = getelementptr inbounds [64 x i8], ptr %36, i64 0, i64 0
  %38 = call i32 (ptr, ...) @errmsg(ptr noundef @.str, ptr noundef %37)
  call void @errfinish(ptr noundef @.str.1, i32 noundef 757, ptr noundef @__func__.index_bulk_delete)
  br label %39

39:                                               ; preds = %30, %28, %26
  unreachable

40:                                               ; No predecessors!
  br label %41

41:                                               ; preds = %40
  br label %42

42:                                               ; preds = %41, %13
  br label %43

43:                                               ; preds = %42
  br label %44

44:                                               ; preds = %43
  br label %45

45:                                               ; preds = %44
  %46 = load ptr, ptr %9, align 8
  %47 = getelementptr inbounds nuw %struct.RelationData, ptr %46, i32 0, i32 51
  %48 = load ptr, ptr %47, align 8
  %49 = getelementptr inbounds nuw %struct.IndexAmRoutine, ptr %48, i32 0, i32 26
  %50 = load ptr, ptr %49, align 8
  %51 = icmp eq ptr %50, null
  br i1 %51, label %52, label %69

52:                                               ; preds = %45
  br label %53

53:                                               ; preds = %52
  br i1 true, label %54, label %56

54:                                               ; preds = %53
  %55 = call zeroext i1 @errstart_cold(i32 noundef 21, ptr noundef null) #8
  br i1 %55, label %58, label %66

56:                                               ; preds = %53
  %57 = call zeroext i1 @errstart(i32 noundef 21, ptr noundef null)
  br i1 %57, label %58, label %66

58:                                               ; preds = %56, %54
  %59 = load ptr, ptr %9, align 8
  %60 = getelementptr inbounds nuw %struct.RelationData, ptr %59, i32 0, i32 13
  %61 = load ptr, ptr %60, align 8
  %62 = getelementptr inbounds nuw %struct.FormData_pg_class, ptr %61, i32 0, i32 1
  %63 = getelementptr inbounds nuw %struct.nameData, ptr %62, i32 0, i32 0
  %64 = getelementptr inbounds [64 x i8], ptr %63, i64 0, i64 0
  %65 = call i32 (ptr, ...) @errmsg_internal(ptr noundef @.str.2, ptr noundef @.str.10, ptr noundef %64)
  call void @errfinish(ptr noundef @.str.1, i32 noundef 758, ptr noundef @__func__.index_bulk_delete)
  br label %66

66:                                               ; preds = %58, %56, %54
  unreachable

67:                                               ; No predecessors!
  br label %68

68:                                               ; preds = %67
  br label %69

69:                                               ; preds = %68, %45
  br label %70

70:                                               ; preds = %69
  br label %71

71:                                               ; preds = %70
  %72 = load ptr, ptr %9, align 8
  %73 = getelementptr inbounds nuw %struct.RelationData, ptr %72, i32 0, i32 51
  %74 = load ptr, ptr %73, align 8
  %75 = getelementptr inbounds nuw %struct.IndexAmRoutine, ptr %74, i32 0, i32 26
  %76 = load ptr, ptr %75, align 8
  %77 = load ptr, ptr %5, align 8
  %78 = load ptr, ptr %6, align 8
  %79 = load ptr, ptr %7, align 8
  %80 = load ptr, ptr %8, align 8
  %81 = call ptr %76(ptr noundef %77, ptr noundef %78, ptr noundef %79, ptr noundef %80)
  call void @llvm.lifetime.end.p0(i64 8, ptr %9) #7
  ret ptr %81
}