; Function Attrs: nounwind uwtable
define dso_local ptr @index_bulk_delete(ptr noundef %0, ptr noundef %1, ptr noundef %2, ptr noundef %3) local_unnamed_addr #0 {
  %5 = load ptr, ptr %0, align 8
  %6 = getelementptr inbounds nuw i8, ptr %5, i64 72
  %7 = load i32, ptr %6, align 8
  %8 = tail call zeroext i1 @ReindexIsProcessingIndex(i32 noundef %7) #7
  br i1 %8, label %9, label %16, !prof !4

9:                                                ; preds = %4
  %10 = tail call zeroext i1 @errstart_cold(i32 noundef 21, ptr noundef null) #8
  tail call void @llvm.assume(i1 %10)
  %11 = tail call i32 @errcode(i32 noundef 1088) #7
  %12 = getelementptr inbounds nuw i8, ptr %5, i64 56
  %13 = load ptr, ptr %12, align 8
  %14 = getelementptr inbounds nuw i8, ptr %13, i64 4
  %15 = tail call i32 (ptr, ...) @errmsg(ptr noundef nonnull @.str, ptr noundef nonnull %14) #7
  tail call void @errfinish(ptr noundef nonnull @.str.1, i32 noundef 757, ptr noundef nonnull @__func__.index_bulk_delete) #7
  unreachable

16:                                               ; preds = %4
  %17 = getelementptr inbounds nuw i8, ptr %5, i64 352
  %18 = load ptr, ptr %17, align 8
  %19 = getelementptr inbounds nuw i8, ptr %18, i64 64
  %20 = load ptr, ptr %19, align 8
  %21 = icmp eq ptr %20, null
  br i1 %21, label %22, label %28

22:                                               ; preds = %16
  %23 = tail call zeroext i1 @errstart_cold(i32 noundef 21, ptr noundef null) #8
  tail call void @llvm.assume(i1 %23)
  %24 = getelementptr inbounds nuw i8, ptr %5, i64 56
  %25 = load ptr, ptr %24, align 8
  %26 = getelementptr inbounds nuw i8, ptr %25, i64 4
  %27 = tail call i32 (ptr, ...) @errmsg_internal(ptr noundef nonnull @.str.2, ptr noundef nonnull @.str.10, ptr noundef nonnull %26) #7
  tail call void @errfinish(ptr noundef nonnull @.str.1, i32 noundef 758, ptr noundef nonnull @__func__.index_bulk_delete) #7
  unreachable

28:                                               ; preds = %16
  %29 = tail call ptr %20(ptr noundef nonnull %0, ptr noundef %1, ptr noundef %2, ptr noundef %3) #7
  ret ptr %29
}